; Function Attrs: mustprogress nofree norecurse nosync nounwind willreturn memory(argmem: read) uwtable
define <2 x float> @_ZNK15b2FrictionJoint16GetReactionForceEf(ptr nocapture noundef nonnull readonly align 8 dereferenceable(240) %this, float noundef %inv_dt) unnamed_addr #8 align 2 {
entry:
  %m_linearImpulse = getelementptr inbounds i8, ptr %this, i64 144
  %0 = load <2 x float>, ptr %m_linearImpulse, align 8
  %1 = insertelement <2 x float> poison, float %inv_dt, i64 0
  %2 = shufflevector <2 x float> %1, <2 x float> poison, <2 x i32> zeroinitializer
  %3 = fmul <2 x float> %0, %2
  ret <2 x float> %3
}